; ModuleID = '2/1267.c'
source_filename = "2/1267.c"
target datalayout = "e-m:e-p270:32:32-p271:32:32-p272:64:64-i64:64-f80:128-n8:16:32:64-S128"
target triple = "x86_64-pc-linux-gnu"

@.str = private unnamed_addr constant [3 x i8] c"%d\00", align 1
@.str.1 = private unnamed_addr constant [6 x i8] c"%d %s\00", align 1
@.str.2 = private unnamed_addr constant [7 x i8] c"%c\0A%d\0A\00", align 1
@.str.3 = private unnamed_addr constant [4 x i8] c"%d\0A\00", align 1

; Function Attrs: noinline nounwind uwtable
define dso_local i32 @main() #0 {
  %1 = alloca i32, align 4
  %2 = alloca i32, align 4
  %3 = alloca i32, align 4
  %4 = alloca [2000 x i32], align 16
  %5 = alloca i32, align 4
  %6 = alloca i32, align 4
  %7 = alloca [30 x i32], align 16
  %8 = alloca i32, align 4
  %9 = alloca i32, align 4
  %10 = alloca [1000 x [30 x i8]], align 16
  store i32 0, i32* %1, align 4
  store i32 0, i32* %5, align 4
  %11 = bitcast [30 x i32]* %7 to i8*
  call void @llvm.memset.p0i8.i64(i8* align 16 %11, i8 0, i64 120, i1 false)
  %12 = call i32 (i8*, ...) @__isoc99_scanf(i8* getelementptr inbounds ([3 x i8], [3 x i8]* @.str, i64 0, i64 0), i32* %2)
  store i32 0, i32* %3, align 4
  br label %13

13:                                               ; preds = %54, %0
  %14 = load i32, i32* %3, align 4
  %15 = load i32, i32* %2, align 4
  %16 = icmp slt i32 %14, %15
  br i1 %16, label %17, label %57

17:                                               ; preds = %13
  %18 = load i32, i32* %3, align 4
  %19 = sext i32 %18 to i64
  %20 = getelementptr inbounds [2000 x i32], [2000 x i32]* %4, i64 0, i64 %19
  %21 = load i32, i32* %3, align 4
  %22 = sext i32 %21 to i64
  %23 = getelementptr inbounds [1000 x [30 x i8]], [1000 x [30 x i8]]* %10, i64 0, i64 %22
  %24 = getelementptr inbounds [30 x i8], [30 x i8]* %23, i64 0, i64 0
  %25 = call i32 (i8*, ...) @__isoc99_scanf(i8* getelementptr inbounds ([6 x i8], [6 x i8]* @.str.1, i64 0, i64 0), i32* %20, i8* %24)
  store i32 0, i32* %8, align 4
  br label %26

26:                                               ; preds = %50, %17
  %27 = load i32, i32* %8, align 4
  %28 = sext i32 %27 to i64
  %29 = load i32, i32* %3, align 4
  %30 = sext i32 %29 to i64
  %31 = getelementptr inbounds [1000 x [30 x i8]], [1000 x [30 x i8]]* %10, i64 0, i64 %30
  %32 = getelementptr inbounds [30 x i8], [30 x i8]* %31, i64 0, i64 0
  %33 = call i64 @strlen(i8* %32) #4
  %34 = icmp ult i64 %28, %33
  br i1 %34, label %35, label %53

35:                                               ; preds = %26
  %36 = load i32, i32* %3, align 4
  %37 = sext i32 %36 to i64
  %38 = getelementptr inbounds [1000 x [30 x i8]], [1000 x [30 x i8]]* %10, i64 0, i64 %37
  %39 = load i32, i32* %8, align 4
  %40 = sext i32 %39 to i64
  %41 = getelementptr inbounds [30 x i8], [30 x i8]* %38, i64 0, i64 %40
  %42 = load i8, i8* %41, align 1
  %43 = sext i8 %42 to i32
  %44 = sub nsw i32 %43, 64
  store i32 %44, i32* %9, align 4
  %45 = load i32, i32* %9, align 4
  %46 = sext i32 %45 to i64
  %47 = getelementptr inbounds [30 x i32], [30 x i32]* %7, i64 0, i64 %46
  %48 = load i32, i32* %47, align 4
  %49 = add nsw i32 %48, 1
  store i32 %49, i32* %47, align 4
  br label %50

50:                                               ; preds = %35
  %51 = load i32, i32* %8, align 4
  %52 = add nsw i32 %51, 1
  store i32 %52, i32* %8, align 4
  br label %26

53:                                               ; preds = %26
  br label %54

54:                                               ; preds = %53
  %55 = load i32, i32* %3, align 4
  %56 = add nsw i32 %55, 1
  store i32 %56, i32* %3, align 4
  br label %13

57:                                               ; preds = %13
  store i32 1, i32* %3, align 4
  br label %58

58:                                               ; preds = %75, %57
  %59 = load i32, i32* %3, align 4
  %60 = icmp slt i32 %59, 26
  br i1 %60, label %61, label %78

61:                                               ; preds = %58
  %62 = load i32, i32* %3, align 4
  %63 = sext i32 %62 to i64
  %64 = getelementptr inbounds [30 x i32], [30 x i32]* %7, i64 0, i64 %63
  %65 = load i32, i32* %64, align 4
  %66 = load i32, i32* %5, align 4
  %67 = icmp sgt i32 %65, %66
  br i1 %67, label %68, label %74

68:                                               ; preds = %61
  %69 = load i32, i32* %3, align 4
  %70 = sext i32 %69 to i64
  %71 = getelementptr inbounds [30 x i32], [30 x i32]* %7, i64 0, i64 %70
  %72 = load i32, i32* %71, align 4
  store i32 %72, i32* %5, align 4
  %73 = load i32, i32* %3, align 4
  store i32 %73, i32* %6, align 4
  br label %74

74:                                               ; preds = %68, %61
  br label %75

75:                                               ; preds = %74
  %76 = load i32, i32* %3, align 4
  %77 = add nsw i32 %76, 1
  store i32 %77, i32* %3, align 4
  br label %58

78:                                               ; preds = %58
  %79 = load i32, i32* %6, align 4
  %80 = add nsw i32 %79, 64
  %81 = load i32, i32* %5, align 4
  %82 = call i32 (i8*, ...) @printf(i8* getelementptr inbounds ([7 x i8], [7 x i8]* @.str.2, i64 0, i64 0), i32 %80, i32 %81)
  store i32 0, i32* %3, align 4
  br label %83

83:                                               ; preds = %120, %78
  %84 = load i32, i32* %3, align 4
  %85 = load i32, i32* %2, align 4
  %86 = icmp slt i32 %84, %85
  br i1 %86, label %87, label %123

87:                                               ; preds = %83
  store i32 0, i32* %8, align 4
  br label %88

88:                                               ; preds = %116, %87
  %89 = load i32, i32* %8, align 4
  %90 = sext i32 %89 to i64
  %91 = load i32, i32* %3, align 4
  %92 = sext i32 %91 to i64
  %93 = getelementptr inbounds [1000 x [30 x i8]], [1000 x [30 x i8]]* %10, i64 0, i64 %92
  %94 = getelementptr inbounds [30 x i8], [30 x i8]* %93, i64 0, i64 0
  %95 = call i64 @strlen(i8* %94) #4
  %96 = icmp ult i64 %90, %95
  br i1 %96, label %97, label %119

97:                                               ; preds = %88
  %98 = load i32, i32* %3, align 4
  %99 = sext i32 %98 to i64
  %100 = getelementptr inbounds [1000 x [30 x i8]], [1000 x [30 x i8]]* %10, i64 0, i64 %99
  %101 = load i32, i32* %8, align 4
  %102 = sext i32 %101 to i64
  %103 = getelementptr inbounds [30 x i8], [30 x i8]* %100, i64 0, i64 %102
  %104 = load i8, i8* %103, align 1
  %105 = sext i8 %104 to i32
  %106 = load i32, i32* %6, align 4
  %107 = add nsw i32 %106, 64
  %108 = icmp eq i32 %105, %107
  br i1 %108, label %109, label %115

109:                                              ; preds = %97
  %110 = load i32, i32* %3, align 4
  %111 = sext i32 %110 to i64
  %112 = getelementptr inbounds [2000 x i32], [2000 x i32]* %4, i64 0, i64 %111
  %113 = load i32, i32* %112, align 4
  %114 = call i32 (i8*, ...) @printf(i8* getelementptr inbounds ([4 x i8], [4 x i8]* @.str.3, i64 0, i64 0), i32 %113)
  br label %115

115:                                              ; preds = %109, %97
  br label %116

116:                                              ; preds = %115
  %117 = load i32, i32* %8, align 4
  %118 = add nsw i32 %117, 1
  store i32 %118, i32* %8, align 4
  br label %88

119:                                              ; preds = %88
  br label %120

120:                                              ; preds = %119
  %121 = load i32, i32* %3, align 4
  %122 = add nsw i32 %121, 1
  store i32 %122, i32* %3, align 4
  br label %83

123:                                              ; preds = %83
  ret i32 0
}

; Function Attrs: argmemonly nounwind willreturn
declare void @llvm.memset.p0i8.i64(i8* nocapture writeonly, i8, i64, i1 immarg) #1

declare dso_local i32 @__isoc99_scanf(i8*, ...) #2

; Function Attrs: nounwind readonly
declare dso_local i64 @strlen(i8*) #3

declare dso_local i32 @printf(i8*, ...) #2


!llvm.module.flags = !{!0}
!llvm.ident = !{!1}

!0 = !{i32 1, !"wchar_size", i32 4}
!1 = !{!"clang version 10.0.0-4ubuntu1 "}
